target datalayout = "e-m:e-p270:32:32-p271:32:32-p272:64:64-i64:64-i128:128-f80:128-n8:16:32:64-S128"
target triple = "x86_64-pc-linux-gnu"

; Function Attrs: nounwind uwtable
define internal i32 @native_get_max_size(i16 noundef zeroext %0, ptr noundef %1) #0 {
  %3 = alloca i16, align 2
  %4 = alloca ptr, align 8
  %5 = alloca i32, align 4
  store i16 %0, ptr %3, align 2, !tbaa !35
  store ptr %1, ptr %4, align 8, !tbaa !36
  call void @llvm.lifetime.start.p0(i64 4, ptr %5) #6
  br label %6

6:                                                ; preds = %2
  store i32 0, ptr %5, align 4, !tbaa !37
  %7 = load i16, ptr %3, align 2, !tbaa !35
  %8 = zext i16 %7 to i32
  switch i32 %8, label %17 [
    i32 8, label %9
    i32 13, label %9
    i32 6, label %11
    i32 9, label %11
    i32 11, label %11
    i32 14, label %11
    i32 10, label %13
    i32 15, label %13
    i32 4, label %15
  ]

9:                                                ; preds = %6, %6
  %10 = load ptr, ptr %4, align 8, !tbaa !36
  store i64 2, ptr %10, align 8, !tbaa !38
  br label %18

11:                                               ; preds = %6, %6, %6, %6
  %12 = load ptr, ptr %4, align 8, !tbaa !36
  store i64 4, ptr %12, align 8, !tbaa !38
  br label %18

13:                                               ; preds = %6, %6
  %14 = load ptr, ptr %4, align 8, !tbaa !36
  store i64 8, ptr %14, align 8, !tbaa !38
  br label %18

15:                                               ; preds = %6
  %16 = load ptr, ptr %4, align 8, !tbaa !36
  store i64 8, ptr %16, align 8, !tbaa !38
  br label %18

17:                                               ; preds = %6
  store i32 -27, ptr %5, align 4, !tbaa !37
  br label %18

18:                                               ; preds = %17, %15, %13, %11, %9
  br label %19

19:                                               ; preds = %18
  br label %20

20:                                               ; preds = %19
  %21 = load i32, ptr %5, align 4, !tbaa !37
  call void @llvm.lifetime.end.p0(i64 4, ptr %5) #6
  ret i32 %21
}