; Function Attrs: mustprogress nofree norecurse nosync nounwind willreturn memory(argmem: write) uwtable
define internal range(i32 -27, 1) i32 @native_get_max_size(i16 noundef zeroext %0, ptr noundef writeonly captures(none) %1) #1 {
  %switch.tableidx = add i16 %0, -4
  %3 = icmp ult i16 %switch.tableidx, 12
  br i1 %3, label %switch.hole_check, label %5

switch.hole_check:                                ; preds = %2
  %switch.shifted = lshr i16 3829, %switch.tableidx
  %switch.lobit = trunc i16 %switch.shifted to i1
  br i1 %switch.lobit, label %switch.lookup, label %5

switch.lookup:                                    ; preds = %switch.hole_check
  %4 = zext nneg i16 %switch.tableidx to i64
  %switch.gep = getelementptr inbounds nuw [12 x i64], ptr @switch.table.native_decode_int, i64 0, i64 %4
  %switch.load = load i64, ptr %switch.gep, align 8
  store i64 %switch.load, ptr %1, align 8, !tbaa !35
  br label %5

5:                                                ; preds = %switch.hole_check, %2, %switch.lookup
  %.0 = phi i32 [ -27, %2 ], [ 0, %switch.lookup ], [ -27, %switch.hole_check ]
  ret i32 %.0
}